target datalayout = "e-m:e-p270:32:32-p271:32:32-p272:64:64-i64:64-i128:128-f80:128-n8:16:32:64-S128"
target triple = "x86_64-unknown-linux-gnu"

%struct.HuffmanTree = type { i32, i16, i16 }

; Function Attrs: nounwind uwtable
define hidden i32 @BrotliSetDepth(i32 noundef %p0, ptr noundef %pool, ptr noundef %depth, i32 noundef %max_depth) #0 {
entry:
  %retval = alloca i32, align 4
  %p0.addr = alloca i32, align 4
  %pool.addr = alloca ptr, align 8
  %depth.addr = alloca ptr, align 8
  %max_depth.addr = alloca i32, align 4
  %stack = alloca [16 x i32], align 16
  %level = alloca i32, align 4
  %p = alloca i32, align 4
  store i32 %p0, ptr %p0.addr, align 4
  store ptr %pool, ptr %pool.addr, align 8
  store ptr %depth, ptr %depth.addr, align 8
  store i32 %max_depth, ptr %max_depth.addr, align 4
  store i32 0, ptr %level, align 4
  %0 = load i32, ptr %p0.addr, align 4
  store i32 %0, ptr %p, align 4
  %arrayidx = getelementptr inbounds [16 x i32], ptr %stack, i64 0, i64 0
  store i32 -1, ptr %arrayidx, align 16
  br label %while.body

while.body:                                       ; preds = %if.end33, %if.end, %entry
  %1 = load ptr, ptr %pool.addr, align 8
  %2 = load i32, ptr %p, align 4
  %idxprom = sext i32 %2 to i64
  %arrayidx1 = getelementptr inbounds %struct.HuffmanTree, ptr %1, i64 %idxprom
  %index_left_ = getelementptr inbounds %struct.HuffmanTree, ptr %arrayidx1, i32 0, i32 1
  %3 = load i16, ptr %index_left_, align 4
  %conv = sext i16 %3 to i32
  %cmp = icmp sge i32 %conv, 0
  br i1 %cmp, label %if.then, label %if.else

if.then:                                          ; preds = %while.body
  %4 = load i32, ptr %level, align 4
  %inc = add nsw i32 %4, 1
  store i32 %inc, ptr %level, align 4
  %5 = load i32, ptr %level, align 4
  %6 = load i32, ptr %max_depth.addr, align 4
  %cmp3 = icmp sgt i32 %5, %6
  br i1 %cmp3, label %if.then5, label %if.end

if.then5:                                         ; preds = %if.then
  store i32 0, ptr %retval, align 4
  br label %return

if.end:                                           ; preds = %if.then
  %7 = load ptr, ptr %pool.addr, align 8
  %8 = load i32, ptr %p, align 4
  %idxprom6 = sext i32 %8 to i64
  %arrayidx7 = getelementptr inbounds %struct.HuffmanTree, ptr %7, i64 %idxprom6
  %index_right_or_value_ = getelementptr inbounds %struct.HuffmanTree, ptr %arrayidx7, i32 0, i32 2
  %9 = load i16, ptr %index_right_or_value_, align 2
  %conv8 = sext i16 %9 to i32
  %10 = load i32, ptr %level, align 4
  %idxprom9 = sext i32 %10 to i64
  %arrayidx10 = getelementptr inbounds [16 x i32], ptr %stack, i64 0, i64 %idxprom9
  store i32 %conv8, ptr %arrayidx10, align 4
  %11 = load ptr, ptr %pool.addr, align 8
  %12 = load i32, ptr %p, align 4
  %idxprom11 = sext i32 %12 to i64
  %arrayidx12 = getelementptr inbounds %struct.HuffmanTree, ptr %11, i64 %idxprom11
  %index_left_13 = getelementptr inbounds %struct.HuffmanTree, ptr %arrayidx12, i32 0, i32 1
  %13 = load i16, ptr %index_left_13, align 4
  %conv14 = sext i16 %13 to i32
  store i32 %conv14, ptr %p, align 4
  br label %while.body

if.else:                                          ; preds = %while.body
  %14 = load i32, ptr %level, align 4
  %conv15 = trunc i32 %14 to i8
  %15 = load ptr, ptr %depth.addr, align 8
  %16 = load ptr, ptr %pool.addr, align 8
  %17 = load i32, ptr %p, align 4
  %idxprom16 = sext i32 %17 to i64
  %arrayidx17 = getelementptr inbounds %struct.HuffmanTree, ptr %16, i64 %idxprom16
  %index_right_or_value_18 = getelementptr inbounds %struct.HuffmanTree, ptr %arrayidx17, i32 0, i32 2
  %18 = load i16, ptr %index_right_or_value_18, align 2
  %idxprom19 = sext i16 %18 to i64
  %arrayidx20 = getelementptr inbounds i8, ptr %15, i64 %idxprom19
  store i8 %conv15, ptr %arrayidx20, align 1
  br label %if.end21

if.end21:                                         ; preds = %if.else
  br label %while.cond22

while.cond22:                                     ; preds = %while.body29, %if.end21
  %19 = load i32, ptr %level, align 4
  %cmp23 = icmp sge i32 %19, 0
  br i1 %cmp23, label %land.rhs, label %land.end

land.rhs:                                         ; preds = %while.cond22
  %20 = load i32, ptr %level, align 4
  %idxprom25 = sext i32 %20 to i64
  %arrayidx26 = getelementptr inbounds [16 x i32], ptr %stack, i64 0, i64 %idxprom25
  %21 = load i32, ptr %arrayidx26, align 4
  %cmp27 = icmp eq i32 %21, -1
  br label %land.end

land.end:                                         ; preds = %land.rhs, %while.cond22
  %22 = phi i1 [ false, %while.cond22 ], [ %cmp27, %land.rhs ]
  br i1 %22, label %while.body29, label %while.end

while.body29:                                     ; preds = %land.end
  %23 = load i32, ptr %level, align 4
  %dec = add nsw i32 %23, -1
  store i32 %dec, ptr %level, align 4
  br label %while.cond22, !llvm.loop !4

while.end:                                        ; preds = %land.end
  %24 = load i32, ptr %level, align 4
  %cmp30 = icmp slt i32 %24, 0
  br i1 %cmp30, label %if.then32, label %if.end33

if.then32:                                        ; preds = %while.end
  store i32 1, ptr %retval, align 4
  br label %return

if.end33:                                         ; preds = %while.end
  %25 = load i32, ptr %level, align 4
  %idxprom34 = sext i32 %25 to i64
  %arrayidx35 = getelementptr inbounds [16 x i32], ptr %stack, i64 0, i64 %idxprom34
  %26 = load i32, ptr %arrayidx35, align 4
  store i32 %26, ptr %p, align 4
  %27 = load i32, ptr %level, align 4
  %idxprom36 = sext i32 %27 to i64
  %arrayidx37 = getelementptr inbounds [16 x i32], ptr %stack, i64 0, i64 %idxprom36
  store i32 -1, ptr %arrayidx37, align 4
  br label %while.body

return:                                           ; preds = %if.then32, %if.then5
  %28 = load i32, ptr %retval, align 4
  ret i32 %28
}