; Function Attrs: nofree norecurse nosync nounwind memory(argmem: readwrite) uwtable
define hidden range(i32 0, 2) i32 @BrotliSetDepth(i32 noundef %p0, ptr noundef readonly captures(none) %pool, ptr noundef writeonly captures(none) %depth, i32 noundef %max_depth) local_unnamed_addr #0 {
entry:
  %stack = alloca [16 x i32], align 16
  store i32 -1, ptr %stack, align 16
  br label %while.body

while.body:                                       ; preds = %while.body.backedge, %entry
  %level.0 = phi i32 [ 0, %entry ], [ %level.0.be, %while.body.backedge ]
  %p.0 = phi i32 [ %p0, %entry ], [ %p.0.be, %while.body.backedge ]
  %idxprom = sext i32 %p.0 to i64
  %arrayidx1 = getelementptr inbounds %struct.HuffmanTree, ptr %pool, i64 %idxprom
  %index_left_ = getelementptr inbounds nuw i8, ptr %arrayidx1, i64 4
  %0 = load i16, ptr %index_left_, align 4
  %cmp = icmp sgt i16 %0, -1
  br i1 %cmp, label %if.then, label %if.else

if.then:                                          ; preds = %while.body
  %cmp3.not = icmp slt i32 %level.0, %max_depth
  br i1 %cmp3.not, label %if.end, label %return

if.end:                                           ; preds = %if.then
  %inc = add nsw i32 %level.0, 1
  %index_right_or_value_ = getelementptr inbounds nuw i8, ptr %arrayidx1, i64 6
  %1 = load i16, ptr %index_right_or_value_, align 2
  %conv8 = sext i16 %1 to i32
  %idxprom9 = sext i32 %inc to i64
  %arrayidx10 = getelementptr inbounds [16 x i32], ptr %stack, i64 0, i64 %idxprom9
  store i32 %conv8, ptr %arrayidx10, align 4
  %conv14 = zext nneg i16 %0 to i32
  br label %while.body.backedge

while.body.backedge:                              ; preds = %if.end, %if.end33
  %level.0.be = phi i32 [ %inc, %if.end ], [ %level.120, %if.end33 ]
  %p.0.be = phi i32 [ %conv14, %if.end ], [ %3, %if.end33 ]
  br label %while.body

if.else:                                          ; preds = %while.body
  %conv15 = trunc i32 %level.0 to i8
  %index_right_or_value_18 = getelementptr inbounds nuw i8, ptr %arrayidx1, i64 6
  %2 = load i16, ptr %index_right_or_value_18, align 2
  %idxprom19 = sext i16 %2 to i64
  %arrayidx20 = getelementptr inbounds i8, ptr %depth, i64 %idxprom19
  store i8 %conv15, ptr %arrayidx20, align 1
  %cmp2319 = icmp sgt i32 %level.0, -1
  br i1 %cmp2319, label %land.rhs, label %return

land.rhs:                                         ; preds = %if.else, %while.body29
  %level.120 = phi i32 [ %dec, %while.body29 ], [ %level.0, %if.else ]
  %idxprom25 = zext nneg i32 %level.120 to i64
  %arrayidx26 = getelementptr inbounds nuw [16 x i32], ptr %stack, i64 0, i64 %idxprom25
  %3 = load i32, ptr %arrayidx26, align 4
  %cmp27 = icmp eq i32 %3, -1
  br i1 %cmp27, label %while.body29, label %if.end33

while.body29:                                     ; preds = %land.rhs
  %dec = add nsw i32 %level.120, -1
  %cmp23 = icmp sgt i32 %level.120, 0
  br i1 %cmp23, label %land.rhs, label %return, !llvm.loop !4

if.end33:                                         ; preds = %land.rhs
  %arrayidx26.le = getelementptr inbounds nuw [16 x i32], ptr %stack, i64 0, i64 %idxprom25
  store i32 -1, ptr %arrayidx26.le, align 4
  br label %while.body.backedge

return:                                           ; preds = %if.then, %if.else, %while.body29
  %retval.0 = phi i32 [ 1, %while.body29 ], [ 1, %if.else ], [ 0, %if.then ]
  ret i32 %retval.0
}